(dp0
S'METTS MARK'
p1
(dp2
S'to_messages'
p3
L807L
sS'deferral_payments'
p4
L0L
sS'expenses'
p5
L94299L
sS'poi'
p6
I00
sS'long_term_incentive'
p7
L0L
sS'from_poi_percent'
p8
F0.04708798017348203
sS'from_poi_to_this_person'
p9
L38L
sS'deferred_income'
p10
L0L
sS'restricted_stock_deferred'
p11
L0L
sS'shared_receipt_with_poi'
p12
L702L
sS'loan_advances'
p13
L0L
sS'from_messages'
p14
L29L
sS'other'
p15
L1740L
sS'to_poi_percent'
p16
F0.034482758620689655
sS'director_fees'
p17
L0L
sS'bonus'
p18
L600000L
sS'more_to_than_from'
p19
I1
sS'total_stock_value'
p20
L585062L
sS'from_this_person_to_poi'
p21
L1L
sS'restricted_stock'
p22
L585062L
sS'salary'
p23
L365788L
sS'total_payments'
p24
L1061827L
sS'exercised_stock_options'
p25
L0L
ssS'BAXTER JOHN C'
p26
(dp27
g3
L0L
sg4
L1295738L
sg5
L11200L
sg6
I00
sg7
L1586055L
sg8
F0.0
sg9
L0L
sg10
L-1386055L
sg11
L0L
sg12
L0L
sg13
L0L
sg14
L0L
sg15
L0L
sg16
F0.0
sg17
L0L
sg18
L1200000L
sg19
I0
sg20
L10623258L
sg21
L0L
sg22
L3942714L
sg23
L267102L
sg24
L5634343L
sg25
L6680544L
ssS'ELLIOTT STEVEN'
p28
(dp29
g3
L0L
sg4
L0L
sg5
L78552L
sg6
I00
sg7
L0L
sg8
F0.0
sg9
L0L
sg10
L-400729L
sg11
L0L
sg12
L0L
sg13
L0L
sg14
L0L
sg15
L12961L
sg16
F0.0
sg17
L0L
sg18
L350000L
sg19
I0
sg20
L6678735L
sg21
L0L
sg22
L1788391L
sg23
L170941L
sg24
L211725L
sg25
L4890344L
ssS'CORDES WILLIAM R'
p30
(dp31
g3
L764L
sg4
L0L
sg5
L0L
sg6
I00
sg7
L0L
sg8
F0.013089005235602094
sg9
L10L
sg10
L0L
sg11
L0L
sg12
L58L
sg13
L0L
sg14
L12L
sg15
L0L
sg16
F0.0
sg17
L0L
sg18
L0L
sg19
I1
sg20
L1038185L
sg21
L0L
sg22
L386335L
sg23
L0L
sg24
L0L
sg25
L651850L
ssS'HANNON KEVIN P'
p32
(dp33
g3
L1045L
sg4
L0L
sg5
L34039L
sg6
I01
sg7
L1617011L
sg8
F0.03062200956937799
sg9
L32L
sg10
L-3117011L
sg11
L0L
sg12
L1035L
sg13
L0L
sg14
L32L
sg15
L11350L
sg16
F0.65625
sg17
L0L
sg18
L1500000L
sg19
I1
sg20
L6391065L
sg21
L21L
sg22
L853064L
sg23
L243293L
sg24
L288682L
sg25
L5538001L
ssS'MORDAUNT KRISTINA M'
p34
(dp35
g3
L0L
sg4
L0L
sg5
L35018L
sg6
I00
sg7
L0L
sg8
F0.0
sg9
L0L
sg10
L0L
sg11
L0L
sg12
L0L
sg13
L0L
sg14
L0L
sg15
L1411L
sg16
F0.0
sg17
L0L
sg18
L325000L
sg19
I0
sg20
L208510L
sg21
L0L
sg22
L208510L
sg23
L267093L
sg24
L628522L
sg25
L0L
ssS'MEYER ROCKFORD G'
p36
(dp37
g3
L232L
sg4
L0L
sg5
L0L
sg6
I00
sg7
L0L
sg8
F0.0
sg9
L0L
sg10
L0L
sg11
L0L
sg12
L22L
sg13
L0L
sg14
L28L
sg15
L0L
sg16
F0.0
sg17
L0L
sg18
L0L
sg19
I1
sg20
L955873L
sg21
L0L
sg22
L462384L
sg23
L0L
sg24
L1848227L
sg25
L493489L
ssS'MCMAHON JEFFREY'
p38
(dp39
g3
L2355L
sg4
L0L
sg5
L0L
sg6
I00
sg7
L694862L
sg8
F0.024628450106157114
sg9
L58L
sg10
L0L
sg11
L0L
sg12
L2228L
sg13
L0L
sg14
L48L
sg15
L297353L
sg16
F0.5416666666666666
sg17
L0L
sg18
L2600000L
sg19
I1
sg20
L1662855L
sg21
L26L
sg22
L558801L
sg23
L370448L
sg24
L4099771L
sg25
L1104054L
ssS'HORTON STANLEY C'
p40
(dp41
g3
L2350L
sg4
L0L
sg5
L0L
sg6
I00
sg7
L0L
sg8
F0.01872340425531915
sg9
L44L
sg10
L0L
sg11
L0L
sg12
L1074L
sg13
L0L
sg14
L1073L
sg15
L0L
sg16
F0.013979496738117428
sg17
L0L
sg18
L0L
sg19
I1
sg20
L7256648L
sg21
L15L
sg22
L2046079L
sg23
L0L
sg24
L3131860L
sg25
L5210569L
ssS'PIPER GREGORY F'
p42
(dp43
g3
L1238L
sg4
L1130036L
sg5
L43057L
sg6
I00
sg7
L0L
sg8
F0.049273021001615507
sg9
L61L
sg10
L-33333L
sg11
L-409554L
sg12
L742L
sg13
L0L
sg14
L222L
sg15
L778L
sg16
F0.21621621621621623
sg17
L0L
sg18
L400000L
sg19
I1
sg20
L880290L
sg21
L48L
sg22
L409554L
sg23
L197091L
sg24
L1737629L
sg25
L880290L
ssS'HUMPHREY GENE E'
p44
(dp45
g3
L128L
sg4
L0L
sg5
L4994L
sg6
I00
sg7
L0L
sg8
F0.078125
sg9
L10L
sg10
L0L
sg11
L0L
sg12
L119L
sg13
L0L
sg14
L17L
sg15
L0L
sg16
F1.0
sg17
L0L
sg18
L0L
sg19
I1
sg20
L2282768L
sg21
L17L
sg22
L0L
sg23
L130724L
sg24
L3100224L
sg25
L2282768L
ssS'UMANOFF ADAM S'
p46
(dp47
g3
L111L
sg4
L0L
sg5
L53122L
sg6
I00
sg7
L0L
sg8
F0.10810810810810811
sg9
L12L
sg10
L0L
sg11
L0L
sg12
L41L
sg13
L0L
sg14
L18L
sg15
L0L
sg16
F0.0
sg17
L0L
sg18
L788750L
sg19
I1
sg20
L0L
sg21
L0L
sg22
L0L
sg23
L288589L
sg24
L1130461L
sg25
L0L
ssS'BLACHMAN JEREMY M'
p48
(dp49
g3
L2475L
sg4
L0L
sg5
L84208L
sg6
I00
sg7
L831809L
sg8
F0.010101010101010102
sg9
L25L
sg10
L0L
sg11
L0L
sg12
L2326L
sg13
L0L
sg14
L14L
sg15
L272L
sg16
F0.14285714285714285
sg17
L0L
sg18
L850000L
sg19
I1
sg20
L954354L
sg21
L2L
sg22
L189041L
sg23
L248546L
sg24
L2014835L
sg25
L765313L
ssS'SUNDE MARTIN'
p50
(dp51
g3
L2647L
sg4
L0L
sg5
L0L
sg6
I00
sg7
L476451L
sg8
F0.013978088401964487
sg9
L37L
sg10
L0L
sg11
L0L
sg12
L2565L
sg13
L0L
sg14
L38L
sg15
L111122L
sg16
F0.34210526315789475
sg17
L0L
sg18
L700000L
sg19
I1
sg20
L698920L
sg21
L13L
sg22
L698920L
sg23
L257486L
sg24
L1545059L
sg25
L0L
ssS'GIBBS DANA R'
p52
(dp53
g3
L169L
sg4
L504610L
sg5
L0L
sg6
I00
sg7
L461912L
sg8
F0.0
sg9
L0L
sg10
L0L
sg11
L0L
sg12
L23L
sg13
L0L
sg14
L12L
sg15
L0L
sg16
F0.0
sg17
L0L
sg18
L0L
sg19
I1
sg20
L2218275L
sg21
L0L
sg22
L0L
sg23
L0L
sg24
L966522L
sg25
L2218275L
ssS'LOWRY CHARLES P'
p54
(dp55
g3
L0L
sg4
L0L
sg5
L0L
sg6
I00
sg7
L0L
sg8
F0.0
sg9
L0L
sg10
L0L
sg11
L-153686L
sg12
L0L
sg13
L0L
sg14
L0L
sg15
L0L
sg16
F0.0
sg17
L0L
sg18
L0L
sg19
I0
sg20
L372205L
sg21
L0L
sg22
L153686L
sg23
L0L
sg24
L0L
sg25
L372205L
ssS'COLWELL WESLEY'
p56
(dp57
g3
L1758L
sg4
L27610L
sg5
L16514L
sg6
I01
sg7
L0L
sg8
F0.0
sg9
L0L
sg10
L-144062L
sg11
L0L
sg12
L1132L
sg13
L0L
sg14
L40L
sg15
L101740L
sg16
F0.275
sg17
L0L
sg18
L1200000L
sg19
I1
sg20
L698242L
sg21
L11L
sg22
L698242L
sg23
L288542L
sg24
L1490344L
sg25
L0L
ssS'MULLER MARK S'
p58
(dp59
g3
L136L
sg4
L842924L
sg5
L0L
sg6
I00
sg7
L0L
sg8
F0.08823529411764706
sg9
L12L
sg10
L-719000L
sg11
L0L
sg12
L114L
sg13
L0L
sg14
L16L
sg15
L947L
sg16
F0.0
sg17
L0L
sg18
L1100000L
sg19
I1
sg20
L1416848L
sg21
L0L
sg22
L360528L
sg23
L251654L
sg24
L3202070L
sg25
L1056320L
ssS'JACKSON CHARLENE R'
p60
(dp61
g3
L258L
sg4
L0L
sg5
L10181L
sg6
I00
sg7
L0L
sg8
F0.09689922480620156
sg9
L25L
sg10
L0L
sg11
L0L
sg12
L117L
sg13
L0L
sg14
L56L
sg15
L2435L
sg16
F0.3392857142857143
sg17
L0L
sg18
L250000L
sg19
I1
sg20
L725735L
sg21
L19L
sg22
L540672L
sg23
L288558L
sg24
L551174L
sg25
L185063L
ssS'WESTFAHL RICHARD K'
p62
(dp63
g3
L0L
sg4
L0L
sg5
L51870L
sg6
I00
sg7
L256191L
sg8
F0.0
sg9
L0L
sg10
L-10800L
sg11
L0L
sg12
L0L
sg13
L0L
sg14
L0L
sg15
L401130L
sg16
F0.0
sg17
L0L
sg18
L0L
sg19
I0
sg20
L384930L
sg21
L0L
sg22
L384930L
sg23
L63744L
sg24
L762135L
sg25
L0L
ssS'WALTERS GARETH W'
p64
(dp65
g3
L0L
sg4
L53625L
sg5
L33785L
sg6
I00
sg7
L0L
sg8
F0.0
sg9
L0L
sg10
L0L
sg11
L0L
sg12
L0L
sg13
L0L
sg14
L0L
sg15
L0L
sg16
F0.0
sg17
L0L
sg18
L0L
sg19
I0
sg20
L1030329L
sg21
L0L
sg22
L0L
sg23
L0L
sg24
L87410L
sg25
L1030329L
ssS'WALLS JR ROBERT H'
p66
(dp67
g3
L671L
sg4
L0L
sg5
L50936L
sg6
I00
sg7
L540751L
sg8
F0.02533532041728763
sg9
L17L
sg10
L0L
sg11
L0L
sg12
L215L
sg13
L0L
sg14
L146L
sg15
L2L
sg16
F0.0
sg17
L0L
sg18
L850000L
sg19
I1
sg20
L5898997L
sg21
L0L
sg22
L1552453L
sg23
L357091L
sg24
L1798780L
sg25
L4346544L
ssS'KITCHEN LOUISE'
p68
(dp69
g3
L0L
sg4
L0L
sg5
L5774L
sg6
I00
sg7
L0L
sg8
F0.0
sg9
L0L
sg10
L0L
sg11
L0L
sg12
L0L
sg13
L0L
sg14
L1728L
sg15
L93925L
sg16
F0.0
sg17
L0L
sg18
L3100000L
sg19
I0
sg20
L547143L
sg21
L0L
sg22
L466101L
sg23
L271442L
sg24
L3471141L
sg25
L81042L
ssS'CHAN RONNIE'
p70
(dp71
g3
L0L
sg4
L0L
sg5
L0L
sg6
I00
sg7
L0L
sg8
F0.0
sg9
L0L
sg10
L-98784L
sg11
L-32460L
sg12
L0L
sg13
L0L
sg14
L0L
sg15
L0L
sg16
F0.0
sg17
L0L
sg18
L0L
sg19
I0
sg20
L0L
sg21
L0L
sg22
L32460L
sg23
L0L
sg24
L0L
sg25
L0L
ssS'BELFER ROBERT'
p72
(dp73
g3
L0L
sg4
L-102500L
sg5
L0L
sg6
I00
sg7
L0L
sg8
F0.0
sg9
L0L
sg10
L0L
sg11
L44093L
sg12
L0L
sg13
L0L
sg14
L0L
sg15
L0L
sg16
F0.0
sg17
L3285L
sg18
L0L
sg19
I0
sg20
L-44093L
sg21
L0L
sg22
L0L
sg23
L0L
sg24
L102500L
sg25
L3285L
ssS'SHANKMAN JEFFREY A'
p74
(dp75
g3
L3221L
sg4
L0L
sg5
L0L
sg6
I00
sg7
L554422L
sg8
F0.029183483390251473
sg9
L94L
sg10
L0L
sg11
L0L
sg12
L1730L
sg13
L0L
sg14
L2681L
sg15
L1191L
sg16
F0.030958597538232
sg17
L0L
sg18
L2000000L
sg19
I1
sg20
L2072035L
sg21
L83L
sg22
L630137L
sg23
L304110L
sg24
L3038702L
sg25
L1441898L
ssS'WODRASKA JOHN'
p76
(dp77
g3
L0L
sg4
L0L
sg5
L0L
sg6
I00
sg7
L0L
sg8
F0.0
sg9
L0L
sg10
L0L
sg11
L0L
sg12
L0L
sg13
L0L
sg14
L0L
sg15
L189583L
sg16
F0.0
sg17
L0L
sg18
L0L
sg19
I0
sg20
L0L
sg21
L0L
sg22
L0L
sg23
L0L
sg24
L189583L
sg25
L0L
ssS'BERGSIEKER RICHARD P'
p78
(dp79
g3
L383L
sg4
L0L
sg5
L59175L
sg6
I00
sg7
L180250L
sg8
F0.010443864229765013
sg9
L4L
sg10
L-485813L
sg11
L0L
sg12
L233L
sg13
L0L
sg14
L59L
sg15
L427316L
sg16
F0.0
sg17
L0L
sg18
L250000L
sg19
I1
sg20
L659249L
sg21
L0L
sg22
L659249L
sg23
L187922L
sg24
L618850L
sg25
L0L
ssS'URQUHART JOHN A'
p80
(dp81
g3
L0L
sg4
L0L
sg5
L0L
sg6
I00
sg7
L0L
sg8
F0.0
sg9
L0L
sg10
L-36666L
sg11
L0L
sg12
L0L
sg13
L0L
sg14
L0L
sg15
L0L
sg16
F0.0
sg17
L36666L
sg18
L0L
sg19
I0
sg20
L0L
sg21
L0L
sg22
L0L
sg23
L0L
sg24
L228656L
sg25
L0L
ssS'BIBI PHILIPPE A'
p82
(dp83
g3
L1607L
sg4
L0L
sg5
L38559L
sg6
I00
sg7
L369721L
sg8
F0.01431238332296204
sg9
L23L
sg10
L0L
sg11
L0L
sg12
L1336L
sg13
L0L
sg14
L40L
sg15
L425688L
sg16
F0.2
sg17
L0L
sg18
L1000000L
sg19
I1
sg20
L1843816L
sg21
L8L
sg22
L378082L
sg23
L213625L
sg24
L2047593L
sg25
L1465734L
ssS'PIRO JIM'
p84
(dp85
g3
L58L
sg4
L0L
sg5
L0L
sg6
I00
sg7
L0L
sg8
F0.0
sg9
L0L
sg10
L0L
sg11
L0L
sg12
L3L
sg13
L0L
sg14
L16L
sg15
L0L
sg16
F0.0625
sg17
L0L
sg18
L0L
sg19
I1
sg20
L47304L
sg21
L1L
sg22
L47304L
sg23
L0L
sg24
L0L
sg25
L0L
ssS'RIEKER PAULA H'
p86
(dp87
g3
L1328L
sg4
L214678L
sg5
L33271L
sg6
I01
sg7
L0L
sg8
F0.02635542168674699
sg9
L35L
sg10
L-100000L
sg11
L0L
sg12
L1258L
sg13
L0L
sg14
L82L
sg15
L1950L
sg16
F0.5853658536585366
sg17
L0L
sg18
L700000L
sg19
I1
sg20
L1918887L
sg21
L48L
sg22
L283649L
sg23
L249201L
sg24
L1099100L
sg25
L1635238L
ssS'WHALEY DAVID A'
p88
(dp89
g3
L0L
sg4
L0L
sg5
L0L
sg6
I00
sg7
L0L
sg8
F0.0
sg9
L0L
sg10
L0L
sg11
L0L
sg12
L0L
sg13
L0L
sg14
L0L
sg15
L0L
sg16
F0.0
sg17
L0L
sg18
L0L
sg19
I0
sg20
L98718L
sg21
L0L
sg22
L0L
sg23
L0L
sg24
L0L
sg25
L98718L
ssS'BECK SALLY W'
p90
(dp91
g3
L0L
sg4
L0L
sg5
L37172L
sg6
I00
sg7
L0L
sg8
F0.0
sg9
L144L
sg10
L0L
sg11
L0L
sg12
L2639L
sg13
L0L
sg14
L0L
sg15
L566L
sg16
F0.0
sg17
L0L
sg18
L700000L
sg19
I0
sg20
L126027L
sg21
L0L
sg22
L126027L
sg23
L231330L
sg24
L969068L
sg25
L0L
ssS'HAUG DAVID L'
p92
(dp93
g3
L573L
sg4
L0L
sg5
L475L
sg6
I00
sg7
L0L
sg8
F0.006980802792321117
sg9
L4L
sg10
L0L
sg11
L0L
sg12
L471L
sg13
L0L
sg14
L19L
sg15
L0L
sg16
F0.3684210526315789
sg17
L0L
sg18
L0L
sg19
I1
sg20
L2217299L
sg21
L7L
sg22
L2217299L
sg23
L0L
sg24
L475L
sg25
L0L
ssS'ECHOLS JOHN B'
p94
(dp95
g3
L0L
sg4
L0L
sg5
L21530L
sg6
I00
sg7
L0L
sg8
F0.0
sg9
L0L
sg10
L0L
sg11
L0L
sg12
L0L
sg13
L0L
sg14
L0L
sg15
L53775L
sg16
F0.0
sg17
L0L
sg18
L200000L
sg19
I0
sg20
L1008941L
sg21
L0L
sg22
L407503L
sg23
L182245L
sg24
L2692324L
sg25
L601438L
ssS'MENDELSOHN JOHN'
p96
(dp97
g3
L0L
sg4
L0L
sg5
L148L
sg6
I00
sg7
L0L
sg8
F0.0
sg9
L0L
sg10
L-103750L
sg11
L0L
sg12
L0L
sg13
L0L
sg14
L0L
sg15
L0L
sg16
F0.0
sg17
L0L
sg18
L0L
sg19
I0
sg20
L0L
sg21
L0L
sg22
L0L
sg23
L0L
sg24
L148L
sg25
L0L
ssS'HICKERSON GARY J'
p98
(dp99
g3
L1320L
sg4
L0L
sg5
L98849L
sg6
I00
sg7
L69223L
sg8
F0.030303030303030304
sg9
L40L
sg10
L0L
sg11
L0L
sg12
L900L
sg13
L0L
sg14
L27L
sg15
L1936L
sg16
F0.037037037037037035
sg17
L0L
sg18
L1700000L
sg19
I1
sg20
L441096L
sg21
L1L
sg22
L441096L
sg23
L211788L
sg24
L2081796L
sg25
L0L
ssS'CLINE KENNETH W'
p100
(dp101
g3
L0L
sg4
L0L
sg5
L0L
sg6
I00
sg7
L0L
sg8
F0.0
sg9
L0L
sg10
L0L
sg11
L-472568L
sg12
L0L
sg13
L0L
sg14
L0L
sg15
L0L
sg16
F0.0
sg17
L0L
sg18
L0L
sg19
I0
sg20
L189518L
sg21
L0L
sg22
L662086L
sg23
L0L
sg24
L0L
sg25
L0L
ssS'LEWIS RICHARD'
p102
(dp103
g3
L952L
sg4
L0L
sg5
L0L
sg6
I00
sg7
L0L
sg8
F0.01050420168067227
sg9
L10L
sg10
L0L
sg11
L0L
sg12
L739L
sg13
L0L
sg14
L26L
sg15
L0L
sg16
F0.0
sg17
L0L
sg18
L0L
sg19
I1
sg20
L850477L
sg21
L0L
sg22
L0L
sg23
L0L
sg24
L0L
sg25
L850477L
ssS'HAYES ROBERT E'
p104
(dp105
g3
L504L
sg4
L7961L
sg5
L0L
sg6
I00
sg7
L0L
sg8
F0.031746031746031744
sg9
L16L
sg10
L0L
sg11
L0L
sg12
L50L
sg13
L0L
sg14
L12L
sg15
L0L
sg16
F0.0
sg17
L0L
sg18
L0L
sg19
I1
sg20
L151418L
sg21
L0L
sg22
L151418L
sg23
L0L
sg24
L7961L
sg25
L0L
ssS'KOPPER MICHAEL J'
p106
(dp107
g3
L0L
sg4
L0L
sg5
L118134L
sg6
I01
sg7
L602671L
sg8
F0.0
sg9
L0L
sg10
L0L
sg11
L0L
sg12
L0L
sg13
L0L
sg14
L0L
sg15
L907502L
sg16
F0.0
sg17
L0L
sg18
L800000L
sg19
I0
sg20
L985032L
sg21
L0L
sg22
L985032L
sg23
L224305L
sg24
L2652612L
sg25
L0L
ssS'LEFF DANIEL P'
p108
(dp109
g3
L2822L
sg4
L0L
sg5
L0L
sg6
I00
sg7
L1387399L
sg8
F0.02374202693125443
sg9
L67L
sg10
L0L
sg11
L0L
sg12
L2672L
sg13
L0L
sg14
L63L
sg15
L3083L
sg16
F0.2222222222222222
sg17
L0L
sg18
L1000000L
sg19
I1
sg20
L360528L
sg21
L14L
sg22
L360528L
sg23
L273746L
sg24
L2664228L
sg25
L0L
ssS'LAVORATO JOHN J'
p110
(dp111
g3
L0L
sg4
L0L
sg5
L49537L
sg6
I00
sg7
L0L
sg8
F0.0
sg9
L0L
sg10
L0L
sg11
L0L
sg12
L0L
sg13
L0L
sg14
L2585L
sg15
L1552L
sg16
F0.0
sg17
L0L
sg18
L0L
sg19
I0
sg20
L5167144L
sg21
L0L
sg22
L1008149L
sg23
L339288L
sg24
L10425757L
sg25
L4158995L
ssS'BERBERIAN DAVID'
p112
(dp113
g3
L0L
sg4
L0L
sg5
L11892L
sg6
I00
sg7
L0L
sg8
F0.0
sg9
L0L
sg10
L0L
sg11
L0L
sg12
L0L
sg13
L0L
sg14
L0L
sg15
L0L
sg16
F0.0
sg17
L0L
sg18
L0L
sg19
I0
sg20
L2493616L
sg21
L0L
sg22
L869220L
sg23
L216582L
sg24
L228474L
sg25
L1624396L
ssS'DETMERING TIMOTHY J'
p114
(dp115
g3
L0L
sg4
L875307L
sg5
L52255L
sg6
I00
sg7
L415657L
sg8
F0.0
sg9
L0L
sg10
L-775241L
sg11
L-315068L
sg12
L0L
sg13
L0L
sg14
L0L
sg15
L1105L
sg16
F0.0
sg17
L0L
sg18
L425000L
sg19
I0
sg20
L2027865L
sg21
L0L
sg22
L315068L
sg23
L210500L
sg24
L1204583L
sg25
L2027865L
ssS'WAKEHAM JOHN'
p116
(dp117
g3
L0L
sg4
L0L
sg5
L103773L
sg6
I00
sg7
L0L
sg8
F0.0
sg9
L0L
sg10
L0L
sg11
L0L
sg12
L0L
sg13
L0L
sg14
L0L
sg15
L0L
sg16
F0.0
sg17
L0L
sg18
L0L
sg19
I0
sg20
L0L
sg21
L0L
sg22
L0L
sg23
L0L
sg24
L213071L
sg25
L0L
ssS'POWERS WILLIAM'
p118
(dp119
g3
L653L
sg4
L0L
sg5
L0L
sg6
I00
sg7
L0L
sg8
F0.0
sg9
L0L
sg10
L-17500L
sg11
L0L
sg12
L12L
sg13
L0L
sg14
L26L
sg15
L0L
sg16
F0.0
sg17
L17500L
sg18
L0L
sg19
I1
sg20
L0L
sg21
L0L
sg22
L0L
sg23
L0L
sg24
L0L
sg25
L0L
ssS'GOLD JOSEPH'
p120
(dp121
g3
L0L
sg4
L0L
sg5
L0L
sg6
I00
sg7
L304805L
sg8
F0.0
sg9
L0L
sg10
L0L
sg11
L0L
sg12
L0L
sg13
L0L
sg14
L0L
sg15
L819288L
sg16
F0.0
sg17
L0L
sg18
L750000L
sg19
I0
sg20
L877611L
sg21
L0L
sg22
L441096L
sg23
L272880L
sg24
L2146973L
sg25
L436515L
ssS'BANNANTINE JAMES M'
p122
(dp123
g3
L566L
sg4
L0L
sg5
L56301L
sg6
I00
sg7
L0L
sg8
F0.06890459363957598
sg9
L39L
sg10
L-5104L
sg11
L-560222L
sg12
L465L
sg13
L0L
sg14
L29L
sg15
L864523L
sg16
F0.0
sg17
L0L
sg18
L0L
sg19
I1
sg20
L5243487L
sg21
L0L
sg22
L1757552L
sg23
L477L
sg24
L916197L
sg25
L4046157L
ssS'DUNCAN JOHN H'
p124
(dp125
g3
L0L
sg4
L0L
sg5
L0L
sg6
I00
sg7
L0L
sg8
F0.0
sg9
L0L
sg10
L-25000L
sg11
L0L
sg12
L0L
sg13
L0L
sg14
L0L
sg15
L0L
sg16
F0.0
sg17
L0L
sg18
L0L
sg19
I0
sg20
L371750L
sg21
L0L
sg22
L0L
sg23
L0L
sg24
L77492L
sg25
L371750L
ssS'SHAPIRO RICHARD S'
p126
(dp127
g3
L0L
sg4
L0L
sg5
L0L
sg6
I00
sg7
L0L
sg8
F0.0
sg9
L74L
sg10
L0L
sg11
L0L
sg12
L0L
sg13
L0L
sg14
L1215L
sg15
L705L
sg16
F0.053497942386831275
sg17
L0L
sg18
L650000L
sg19
I0
sg20
L987001L
sg21
L65L
sg22
L379164L
sg23
L269076L
sg24
L1057548L
sg25
L607837L
ssS'SHERRIFF JOHN R'
p128
(dp129
g3
L3187L
sg4
L0L
sg5
L0L
sg6
I00
sg7
L554422L
sg8
F0.008785691873235017
sg9
L28L
sg10
L0L
sg11
L0L
sg12
L2103L
sg13
L0L
sg14
L92L
sg15
L1852186L
sg16
F0.25
sg17
L0L
sg18
L1500000L
sg19
I1
sg20
L3128982L
sg21
L23L
sg22
L1293424L
sg23
L428780L
sg24
L4335388L
sg25
L1835558L
ssS'SHELBY REX'
p130
(dp131
g3
L225L
sg4
L0L
sg5
L22884L
sg6
I01
sg7
L0L
sg8
F0.057777777777777775
sg9
L13L
sg10
L-4167L
sg11
L0L
sg12
L91L
sg13
L0L
sg14
L39L
sg15
L1573324L
sg16
F0.358974358974359
sg17
L0L
sg18
L200000L
sg19
I1
sg20
L2493616L
sg21
L14L
sg22
L869220L
sg23
L211844L
sg24
L2003885L
sg25
L1624396L
ssS'LEMAISTRE CHARLES'
p132
(dp133
g3
L0L
sg4
L0L
sg5
L0L
sg6
I00
sg7
L0L
sg8
F0.0
sg9
L0L
sg10
L-25000L
sg11
L0L
sg12
L0L
sg13
L0L
sg14
L0L
sg15
L0L
sg16
F0.0
sg17
L0L
sg18
L0L
sg19
I0
sg20
L412878L
sg21
L0L
sg22
L0L
sg23
L0L
sg24
L87492L
sg25
L412878L
ssS'DEFFNER JOSEPH M'
p134
(dp135
g3
L714L
sg4
L0L
sg5
L41626L
sg6
I00
sg7
L335349L
sg8
F0.16106442577030813
sg9
L115L
sg10
L0L
sg11
L0L
sg12
L552L
sg13
L0L
sg14
L74L
sg15
L25553L
sg16
F0.05405405405405406
sg17
L0L
sg18
L600000L
sg19
I1
sg20
L159211L
sg21
L4L
sg22
L141833L
sg23
L206121L
sg24
L1208649L
sg25
L17378L
ssS'KISHKILL JOSEPH G'
p136
(dp137
g3
L0L
sg4
L0L
sg5
L116335L
sg6
I00
sg7
L0L
sg8
F0.0
sg9
L0L
sg10
L-51042L
sg11
L0L
sg12
L0L
sg13
L0L
sg14
L0L
sg15
L465357L
sg16
F0.0
sg17
L0L
sg18
L0L
sg19
I0
sg20
L1034346L
sg21
L0L
sg22
L1034346L
sg23
L174246L
sg24
L704896L
sg25
L0L
ssS'WHALLEY LAWRENCE G'
p138
(dp139
g3
L0L
sg4
L0L
sg5
L57838L
sg6
I00
sg7
L808346L
sg8
F0.0
sg9
L186L
sg10
L0L
sg11
L0L
sg12
L0L
sg13
L0L
sg14
L556L
sg15
L301026L
sg16
F0.04316546762589928
sg17
L0L
sg18
L3000000L
sg19
I0
sg20
L6079137L
sg21
L24L
sg22
L2796177L
sg23
L510364L
sg24
L4677574L
sg25
L3282960L
ssS'MCCARTY DANNY J'
p140
(dp141
g3
L1433L
sg4
L0L
sg5
L0L
sg6
I00
sg7
L0L
sg8
F0.017445917655268667
sg9
L25L
sg10
L0L
sg11
L0L
sg12
L508L
sg13
L0L
sg14
L215L
sg15
L0L
sg16
F0.009302325581395349
sg17
L0L
sg18
L0L
sg19
I1
sg20
L758931L
sg21
L2L
sg22
L94556L
sg23
L0L
sg24
L0L
sg25
L664375L
ssS'MCCONNELL MICHAEL S'
p142
(dp143
g3
L3329L
sg4
L0L
sg5
L81364L
sg6
I00
sg7
L554422L
sg8
F0.02763592670471613
sg9
L92L
sg10
L0L
sg11
L0L
sg12
L2189L
sg13
L0L
sg14
L2742L
sg15
L540L
sg16
F0.0
sg17
L0L
sg18
L1100000L
sg19
I1
sg20
L3101279L
sg21
L0L
sg22
L1478269L
sg23
L365038L
sg24
L2101364L
sg25
L1623010L
ssS'DELAINEY DAVID W'
p144
(dp145
g3
L3093L
sg4
L0L
sg5
L86174L
sg6
I01
sg7
L1294981L
sg8
F0.02133850630455868
sg9
L66L
sg10
L0L
sg11
L0L
sg12
L2097L
sg13
L0L
sg14
L3069L
sg15
L1661L
sg16
F0.0
sg17
L0L
sg18
L3000000L
sg19
I1
sg20
L3614261L
sg21
L0L
sg22
L1323148L
sg23
L365163L
sg24
L4747979L
sg25
L2291113L
ssS'SULLIVAN-SHAKLOVITZ COLLEEN'
p146
(dp147
g3
L0L
sg4
L181993L
sg5
L0L
sg6
I00
sg7
L554422L
sg8
F0.0
sg9
L0L
sg10
L0L
sg11
L0L
sg12
L0L
sg13
L0L
sg14
L0L
sg15
L162L
sg16
F0.0
sg17
L0L
sg18
L100000L
sg19
I0
sg20
L1362375L
sg21
L0L
sg22
L0L
sg23
L162779L
sg24
L999356L
sg25
L1362375L
ssS'WROBEL BRUCE'
p148
(dp149
g3
L0L
sg4
L0L
sg5
L0L
sg6
I00
sg7
L0L
sg8
F0.0
sg9
L0L
sg10
L0L
sg11
L0L
sg12
L0L
sg13
L0L
sg14
L0L
sg15
L0L
sg16
F0.0
sg17
L0L
sg18
L0L
sg19
I0
sg20
L139130L
sg21
L0L
sg22
L0L
sg23
L0L
sg24
L0L
sg25
L139130L
ssS'LINDHOLM TOD A'
p150
(dp151
g3
L0L
sg4
L204075L
sg5
L57727L
sg6
I00
sg7
L175000L
sg8
F0.0
sg9
L0L
sg10
L0L
sg11
L0L
sg12
L0L
sg13
L0L
sg14
L0L
sg15
L2630L
sg16
F0.0
sg17
L0L
sg18
L200000L
sg19
I0
sg20
L3064208L
sg21
L0L
sg22
L514847L
sg23
L236457L
sg24
L875889L
sg25
L2549361L
ssS'MEYER JEROME J'
p152
(dp153
g3
L0L
sg4
L0L
sg5
L2151L
sg6
I00
sg7
L0L
sg8
F0.0
sg9
L0L
sg10
L-38346L
sg11
L0L
sg12
L0L
sg13
L0L
sg14
L0L
sg15
L0L
sg16
F0.0
sg17
L38346L
sg18
L0L
sg19
I0
sg20
L0L
sg21
L0L
sg22
L0L
sg23
L0L
sg24
L2151L
sg25
L0L
ssS'LAY KENNETH L'
p154
(dp155
g3
L4273L
sg4
L202911L
sg5
L99832L
sg6
I01
sg7
L0L
sg8
F0.028785396676807865
sg9
L123L
sg10
L-300000L
sg11
L0L
sg12
L2411L
sg13
L0L
sg14
L36L
sg15
L0L
sg16
F0.4444444444444444
sg17
L0L
sg18
L0L
sg19
I1
sg20
L0L
sg21
L16L
sg22
L0L
sg23
L0L
sg24
L0L
sg25
L0L
ssS'BUTTS ROBERT H'
p156
(dp157
g3
L0L
sg4
L0L
sg5
L9410L
sg6
I00
sg7
L175000L
sg8
F0.0
sg9
L0L
sg10
L-75000L
sg11
L0L
sg12
L0L
sg13
L0L
sg14
L0L
sg15
L150656L
sg16
F0.0
sg17
L0L
sg18
L750000L
sg19
I0
sg20
L417619L
sg21
L0L
sg22
L417619L
sg23
L261516L
sg24
L1271582L
sg25
L0L
ssS'OLSON CINDY K'
p158
(dp159
g3
L1184L
sg4
L77716L
sg5
L63791L
sg6
I00
sg7
L100000L
sg8
F0.016891891891891893
sg9
L20L
sg10
L0L
sg11
L0L
sg12
L856L
sg13
L0L
sg14
L52L
sg15
L972L
sg16
F0.28846153846153844
sg17
L0L
sg18
L750000L
sg19
I1
sg20
L2606763L
sg21
L15L
sg22
L969729L
sg23
L329078L
sg24
L1321557L
sg25
L1637034L
ssS'MCDONALD REBECCA'
p160
(dp161
g3
L894L
sg4
L0L
sg5
L0L
sg6
I00
sg7
L0L
sg8
F0.06040268456375839
sg9
L54L
sg10
L0L
sg11
L0L
sg12
L720L
sg13
L0L
sg14
L13L
sg15
L0L
sg16
F0.07692307692307693
sg17
L0L
sg18
L0L
sg19
I1
sg20
L1691366L
sg21
L1L
sg22
L934065L
sg23
L0L
sg24
L0L
sg25
L757301L
ssS'CUMBERLAND MICHAEL S'
p162
(dp163
g3
L0L
sg4
L0L
sg5
L22344L
sg6
I00
sg7
L275000L
sg8
F0.0
sg9
L0L
sg10
L0L
sg11
L0L
sg12
L0L
sg13
L0L
sg14
L0L
sg15
L713L
sg16
F0.0
sg17
L0L
sg18
L325000L
sg19
I0
sg20
L207940L
sg21
L0L
sg22
L207940L
sg23
L184899L
sg24
L807956L
sg25
L0L
ssS'GAHN ROBERT S'
p164
(dp165
g3
L0L
sg4
L73122L
sg5
L50080L
sg6
I00
sg7
L0L
sg8
F0.0
sg9
L0L
sg10
L-1042L
sg11
L0L
sg12
L0L
sg13
L0L
sg14
L0L
sg15
L76547L
sg16
F0.0
sg17
L0L
sg18
L509870L
sg19
I0
sg20
L318607L
sg21
L0L
sg22
L235370L
sg23
L192008L
sg24
L900585L
sg25
L83237L
ssS'MCCLELLAN GEORGE'
p166
(dp167
g3
L1744L
sg4
L0L
sg5
L0L
sg6
I00
sg7
L0L
sg8
F0.02981651376146789
sg9
L52L
sg10
L-125000L
sg11
L0L
sg12
L1469L
sg13
L0L
sg14
L49L
sg15
L51587L
sg16
F0.0
sg17
L0L
sg18
L900000L
sg19
I1
sg20
L947861L
sg21
L0L
sg22
L441096L
sg23
L263413L
sg24
L1318763L
sg25
L506765L
ssS'HERMANN ROBERT J'
p168
(dp169
g3
L0L
sg4
L0L
sg5
L48357L
sg6
I00
sg7
L150000L
sg8
F0.0
sg9
L0L
sg10
L-280000L
sg11
L0L
sg12
L0L
sg13
L0L
sg14
L0L
sg15
L416441L
sg16
F0.0
sg17
L0L
sg18
L700000L
sg19
I0
sg20
L668132L
sg21
L0L
sg22
L480632L
sg23
L262663L
sg24
L1297461L
sg25
L187500L
ssS'SCRIMSHAW MATTHEW'
p170
(dp171
g3
L0L
sg4
L0L
sg5
L0L
sg6
I00
sg7
L0L
sg8
F0.0
sg9
L0L
sg10
L0L
sg11
L0L
sg12
L0L
sg13
L0L
sg14
L0L
sg15
L0L
sg16
F0.0
sg17
L0L
sg18
L0L
sg19
I0
sg20
L759557L
sg21
L0L
sg22
L0L
sg23
L0L
sg24
L0L
sg25
L759557L
ssS'GATHMANN WILLIAM D'
p172
(dp173
g3
L0L
sg4
L0L
sg5
L0L
sg6
I00
sg7
L0L
sg8
F0.0
sg9
L0L
sg10
L0L
sg11
L-72419L
sg12
L0L
sg13
L0L
sg14
L0L
sg15
L0L
sg16
F0.0
sg17
L0L
sg18
L0L
sg19
I0
sg20
L1945360L
sg21
L0L
sg22
L264013L
sg23
L0L
sg24
L0L
sg25
L1753766L
ssS'HAEDICKE MARK E'
p174
(dp175
g3
L4009L
sg4
L0L
sg5
L76169L
sg6
I00
sg7
L983346L
sg8
F0.04489897730107259
sg9
L180L
sg10
L-934484L
sg11
L-329825L
sg12
L1847L
sg13
L0L
sg14
L1941L
sg15
L52382L
sg16
F0.03142709943328181
sg17
L0L
sg18
L1150000L
sg19
I1
sg20
L803094L
sg21
L61L
sg22
L524169L
sg23
L374125L
sg24
L3859065L
sg25
L608750L
ssS'BOWEN JR RAYMOND M'
p176
(dp177
g3
L1858L
sg4
L0L
sg5
L65907L
sg6
I01
sg7
L974293L
sg8
F0.07534983853606028
sg9
L140L
sg10
L-833L
sg11
L0L
sg12
L1593L
sg13
L0L
sg14
L27L
sg15
L1621L
sg16
F0.5555555555555556
sg17
L0L
sg18
L1350000L
sg19
I1
sg20
L252055L
sg21
L15L
sg22
L252055L
sg23
L278601L
sg24
L2669589L
sg25
L0L
ssS'GILLIS JOHN'
p178
(dp179
g3
L0L
sg4
L0L
sg5
L0L
sg6
I00
sg7
L0L
sg8
F0.0
sg9
L0L
sg10
L0L
sg11
L0L
sg12
L0L
sg13
L0L
sg14
L0L
sg15
L0L
sg16
F0.0
sg17
L0L
sg18
L0L
sg19
I0
sg20
L85641L
sg21
L0L
sg22
L75838L
sg23
L0L
sg24
L0L
sg25
L9803L
ssS'FITZGERALD JAY L'
p180
(dp181
g3
L936L
sg4
L0L
sg5
L23870L
sg6
I00
sg7
L556416L
sg8
F0.0010683760683760685
sg9
L1L
sg10
L0L
sg11
L0L
sg12
L723L
sg13
L0L
sg14
L16L
sg15
L285414L
sg16
F0.5
sg17
L0L
sg18
L350000L
sg19
I1
sg20
L1621236L
sg21
L8L
sg22
L956775L
sg23
L199157L
sg24
L1414857L
sg25
L664461L
ssS'MORAN MICHAEL P'
p182
(dp183
g3
L672L
sg4
L0L
sg5
L0L
sg6
I00
sg7
L0L
sg8
F0.0
sg9
L0L
sg10
L0L
sg11
L0L
sg12
L127L
sg13
L0L
sg14
L19L
sg15
L0L
sg16
F0.0
sg17
L0L
sg18
L0L
sg19
I1
sg20
L221141L
sg21
L0L
sg22
L161602L
sg23
L0L
sg24
L0L
sg25
L59539L
ssS'REDMOND BRIAN L'
p184
(dp185
g3
L1671L
sg4
L0L
sg5
L14689L
sg6
I00
sg7
L0L
sg8
F0.0
sg9
L0L
sg10
L0L
sg11
L0L
sg12
L1063L
sg13
L0L
sg14
L221L
sg15
L0L
sg16
F0.22171945701357465
sg17
L0L
sg18
L0L
sg19
I1
sg20
L7890324L
sg21
L49L
sg22
L381285L
sg23
L96840L
sg24
L111529L
sg25
L7509039L
ssS'BAZELIDES PHILIP J'
p186
(dp187
g3
L0L
sg4
L684694L
sg5
L0L
sg6
I00
sg7
L93750L
sg8
F0.0
sg9
L0L
sg10
L0L
sg11
L0L
sg12
L0L
sg13
L0L
sg14
L0L
sg15
L874L
sg16
F0.0
sg17
L0L
sg18
L0L
sg19
I0
sg20
L1599641L
sg21
L0L
sg22
L0L
sg23
L80818L
sg24
L860136L
sg25
L1599641L
ssS'BELDEN TIMOTHY N'
p188
(dp189
g3
L0L
sg4
L0L
sg5
L17355L
sg6
I01
sg7
L0L
sg8
F0.0
sg9
L0L
sg10
L-2334434L
sg11
L0L
sg12
L0L
sg13
L0L
sg14
L484L
sg15
L210698L
sg16
F0.2231404958677686
sg17
L0L
sg18
L0L
sg19
I0
sg20
L1110705L
sg21
L108L
sg22
L157569L
sg23
L213999L
sg24
L5501630L
sg25
L953136L
ssS'DURAN WILLIAM D'
p190
(dp191
g3
L904L
sg4
L0L
sg5
L25785L
sg6
I00
sg7
L1105218L
sg8
F0.1172566371681416
sg9
L106L
sg10
L0L
sg11
L0L
sg12
L599L
sg13
L0L
sg14
L12L
sg15
L1568L
sg16
F0.25
sg17
L0L
sg18
L750000L
sg19
I1
sg20
L1640910L
sg21
L3L
sg22
L189041L
sg23
L210692L
sg24
L2093263L
sg25
L1451869L
ssS'THORN TERENCE H'
p192
(dp193
g3
L266L
sg4
L16586L
sg5
L46145L
sg6
I00
sg7
L200000L
sg8
F0.0
sg9
L0L
sg10
L0L
sg11
L0L
sg12
L73L
sg13
L0L
sg14
L41L
sg15
L426629L
sg16
F0.0
sg17
L0L
sg18
L0L
sg19
I1
sg20
L4817796L
sg21
L0L
sg22
L365320L
sg23
L222093L
sg24
L911453L
sg25
L4452476L
ssS'FASTOW ANDREW S'
p194
(dp195
g3
L0L
sg4
L0L
sg5
L55921L
sg6
I01
sg7
L0L
sg8
F0.0
sg9
L0L
sg10
L-1386055L
sg11
L0L
sg12
L0L
sg13
L0L
sg14
L0L
sg15
L277464L
sg16
F0.0
sg17
L0L
sg18
L1300000L
sg19
I0
sg20
L1794412L
sg21
L0L
sg22
L1794412L
sg23
L440698L
sg24
L2424083L
sg25
L0L
ssS'FOY JOE'
p196
(dp197
g3
L57L
sg4
L181755L
sg5
L0L
sg6
I00
sg7
L0L
sg8
F0.0
sg9
L0L
sg10
L0L
sg11
L0L
sg12
L2L
sg13
L0L
sg14
L13L
sg15
L0L
sg16
F0.0
sg17
L0L
sg18
L0L
sg19
I1
sg20
L343434L
sg21
L0L
sg22
L0L
sg23
L0L
sg24
L181755L
sg25
L343434L
ssS'CALGER CHRISTOPHER F'
p198
(dp199
g3
L2598L
sg4
L0L
sg5
L35818L
sg6
I01
sg7
L375304L
sg8
F0.0
sg9
L0L
sg10
L-262500L
sg11
L0L
sg12
L2188L
sg13
L0L
sg14
L144L
sg15
L486L
sg16
F0.1736111111111111
sg17
L0L
sg18
L1250000L
sg19
I1
sg20
L126027L
sg21
L25L
sg22
L126027L
sg23
L240189L
sg24
L1639297L
sg25
L0L
ssS'RICE KENNETH D'
p200
(dp201
g3
L905L
sg4
L0L
sg5
L46950L
sg6
I01
sg7
L1617011L
sg8
F0.04640883977900553
sg9
L42L
sg10
L-3504386L
sg11
L0L
sg12
L864L
sg13
L0L
sg14
L18L
sg15
L174839L
sg16
F0.2222222222222222
sg17
L0L
sg18
L1750000L
sg19
I1
sg20
L0L
sg21
L4L
sg22
L2748364L
sg23
L420636L
sg24
L505050L
sg25
L0L
ssS'KAMINSKI WINCENTY J'
p202
(dp203
g3
L4607L
sg4
L0L
sg5
L83585L
sg6
I00
sg7
L323466L
sg8
F0.008899500759713479
sg9
L41L
sg10
L0L
sg11
L0L
sg12
L583L
sg13
L0L
sg14
L0L
sg15
L4669L
sg16
F0.0
sg17
L0L
sg18
L400000L
sg19
I1
sg20
L976037L
sg21
L171L
sg22
L126027L
sg23
L275101L
sg24
L1086821L
sg25
L850010L
ssS'COX DAVID'
p204
(dp205
g3
L102L
sg4
L0L
sg5
L27861L
sg6
I00
sg7
L0L
sg8
F0.0
sg9
L0L
sg10
L-41250L
sg11
L0L
sg12
L71L
sg13
L0L
sg14
L33L
sg15
L494L
sg16
F0.12121212121212122
sg17
L0L
sg18
L800000L
sg19
I1
sg20
L495633L
sg21
L4L
sg22
L378082L
sg23
L314288L
sg24
L1101393L
sg25
L117551L
ssS'OVERDYKE JR JERE C'
p206
(dp207
g3
L0L
sg4
L0L
sg5
L18834L
sg6
I00
sg7
L135836L
sg8
F0.0
sg9
L0L
sg10
L0L
sg11
L0L
sg12
L0L
sg13
L0L
sg14
L0L
sg15
L176L
sg16
F0.0
sg17
L0L
sg18
L0L
sg19
I0
sg20
L7307594L
sg21
L0L
sg22
L2041016L
sg23
L94941L
sg24
L249787L
sg25
L5266578L
ssS'PEREIRA PAULO V. FERRAZ'
p208
(dp209
g3
L0L
sg4
L0L
sg5
L27942L
sg6
I00
sg7
L0L
sg8
F0.0
sg9
L0L
sg10
L-101250L
sg11
L0L
sg12
L0L
sg13
L0L
sg14
L0L
sg15
L0L
sg16
F0.0
sg17
L0L
sg18
L0L
sg19
I0
sg20
L0L
sg21
L0L
sg22
L0L
sg23
L0L
sg24
L27942L
sg25
L0L
ssS'STABLER FRANK'
p210
(dp211
g3
L0L
sg4
L0L
sg5
L16514L
sg6
I00
sg7
L0L
sg8
F0.0
sg9
L0L
sg10
L0L
sg11
L0L
sg12
L0L
sg13
L0L
sg14
L0L
sg15
L356071L
sg16
F0.0
sg17
L0L
sg18
L500000L
sg19
I0
sg20
L511734L
sg21
L0L
sg22
L511734L
sg23
L239502L
sg24
L1112087L
sg25
L0L
ssS'SKILLING JEFFREY K'
p212
(dp213
g3
L3627L
sg4
L0L
sg5
L29336L
sg6
I01
sg7
L0L
sg8
F0.0242624758753791
sg9
L88L
sg10
L0L
sg11
L0L
sg12
L2042L
sg13
L0L
sg14
L108L
sg15
L22122L
sg16
F0.2777777777777778
sg17
L0L
sg18
L0L
sg19
I1
sg20
L0L
sg21
L30L
sg22
L0L
sg23
L0L
sg24
L8682716L
sg25
L0L
ssS'BLAKE JR. NORMAN P'
p214
(dp215
g3
L0L
sg4
L0L
sg5
L1279L
sg6
I00
sg7
L0L
sg8
F0.0
sg9
L0L
sg10
L-113784L
sg11
L0L
sg12
L0L
sg13
L0L
sg14
L0L
sg15
L0L
sg16
F0.0
sg17
L0L
sg18
L0L
sg19
I0
sg20
L0L
sg21
L0L
sg22
L0L
sg23
L0L
sg24
L1279L
sg25
L0L
ssS'SHERRICK JEFFREY B'
p216
(dp217
g3
L613L
sg4
L0L
sg5
L0L
sg6
I00
sg7
L0L
sg8
F0.0636215334420881
sg9
L39L
sg10
L0L
sg11
L0L
sg12
L583L
sg13
L0L
sg14
L25L
sg15
L0L
sg16
F0.72
sg17
L0L
sg18
L0L
sg19
I1
sg20
L1832468L
sg21
L18L
sg22
L405999L
sg23
L0L
sg24
L0L
sg25
L1426469L
ssS'PRENTICE JAMES'
p218
(dp219
g3
L0L
sg4
L564348L
sg5
L0L
sg6
I00
sg7
L0L
sg8
F0.0
sg9
L0L
sg10
L0L
sg11
L0L
sg12
L0L
sg13
L0L
sg14
L0L
sg15
L0L
sg16
F0.0
sg17
L0L
sg18
L0L
sg19
I0
sg20
L1095040L
sg21
L0L
sg22
L208809L
sg23
L0L
sg24
L564348L
sg25
L886231L
ssS'GRAY RODNEY'
p220
(dp221
g3
L0L
sg4
L93585L
sg5
L0L
sg6
I00
sg7
L365625L
sg8
F0.0
sg9
L0L
sg10
L0L
sg11
L0L
sg12
L0L
sg13
L0L
sg14
L0L
sg15
L680833L
sg16
F0.0
sg17
L0L
sg18
L0L
sg19
I0
sg20
L0L
sg21
L0L
sg22
L0L
sg23
L6615L
sg24
L1146658L
sg25
L0L
ssS'PICKERING MARK R'
p222
(dp223
g3
L898L
sg4
L0L
sg5
L31653L
sg6
I00
sg7
L0L
sg8
F0.0077951002227171495
sg9
L7L
sg10
L0L
sg11
L0L
sg12
L728L
sg13
L400000L
sg14
L67L
sg15
L0L
sg16
F0.0
sg17
L0L
sg18
L300000L
sg19
I1
sg20
L28798L
sg21
L0L
sg22
L0L
sg23
L0L
sg24
L1386690L
sg25
L28798L
ssS'NOLES JAMES L'
p224
(dp225
g3
L0L
sg4
L774401L
sg5
L0L
sg6
I00
sg7
L0L
sg8
F0.0
sg9
L0L
sg10
L0L
sg11
L-94556L
sg12
L0L
sg13
L0L
sg14
L0L
sg15
L0L
sg16
F0.0
sg17
L0L
sg18
L0L
sg19
I0
sg20
L368705L
sg21
L0L
sg22
L463261L
sg23
L0L
sg24
L774401L
sg25
L0L
ssS'KEAN STEVEN J'
p226
(dp227
g3
L0L
sg4
L0L
sg5
L41953L
sg6
I00
sg7
L300000L
sg8
F0.0
sg9
L140L
sg10
L0L
sg11
L0L
sg12
L0L
sg13
L0L
sg14
L0L
sg15
L1231L
sg16
F0.0
sg17
L0L
sg18
L1000000L
sg19
I0
sg20
L6153642L
sg21
L0L
sg22
L4131594L
sg23
L404338L
sg24
L1747522L
sg25
L2022048L
ssS'FOWLER PEGGY'
p228
(dp229
g3
L517L
sg4
L0L
sg5
L0L
sg6
I00
sg7
L0L
sg8
F0.0
sg9
L0L
sg10
L0L
sg11
L0L
sg12
L10L
sg13
L0L
sg14
L36L
sg15
L0L
sg16
F0.0
sg17
L0L
sg18
L0L
sg19
I1
sg20
L1884748L
sg21
L0L
sg22
L560170L
sg23
L0L
sg24
L0L
sg25
L1324578L
ssS'WASAFF GEORGE'
p230
(dp231
g3
L400L
sg4
L831299L
sg5
L0L
sg6
I00
sg7
L200000L
sg8
F0.055
sg9
L22L
sg10
L-583325L
sg11
L0L
sg12
L337L
sg13
L0L
sg14
L30L
sg15
L1425L
sg16
F0.23333333333333334
sg17
L0L
sg18
L325000L
sg19
I1
sg20
L2056427L
sg21
L7L
sg22
L388167L
sg23
L259996L
sg24
L1034395L
sg25
L1668260L
ssS'WHITE JR THOMAS E'
p232
(dp233
g3
L0L
sg4
L0L
sg5
L81353L
sg6
I00
sg7
L0L
sg8
F0.0
sg9
L0L
sg10
L0L
sg11
L0L
sg12
L0L
sg13
L0L
sg14
L0L
sg15
L1085463L
sg16
F0.0
sg17
L0L
sg18
L450000L
sg19
I0
sg20
L15144123L
sg21
L0L
sg22
L0L
sg23
L317543L
sg24
L1934359L
sg25
L1297049L
ssS'CHRISTODOULOU DIOMEDES'
p234
(dp235
g3
L0L
sg4
L0L
sg5
L0L
sg6
I00
sg7
L0L
sg8
F0.0
sg9
L0L
sg10
L0L
sg11
L0L
sg12
L0L
sg13
L0L
sg14
L0L
sg15
L0L
sg16
F0.0
sg17
L0L
sg18
L0L
sg19
I0
sg20
L6077885L
sg21
L0L
sg22
L950730L
sg23
L0L
sg24
L0L
sg25
L5127155L
ssS'ALLEN PHILLIP K'
p236
(dp237
g3
L2902L
sg4
L0L
sg5
L13868L
sg6
I00
sg7
L304805L
sg8
F0.016195727084769126
sg9
L47L
sg10
L-3081055L
sg11
L-126027L
sg12
L1407L
sg13
L0L
sg14
L2195L
sg15
L152L
sg16
F0.029612756264236904
sg17
L0L
sg18
L0L
sg19
I1
sg20
L1729541L
sg21
L65L
sg22
L126027L
sg23
L201955L
sg24
L4484442L
sg25
L1729541L
ssS'SHARP VICTORIA T'
p238
(dp239
g3
L3136L
sg4
L187469L
sg5
L116337L
sg6
I00
sg7
L422158L
sg8
F0.007653061224489796
sg9
L24L
sg10
L0L
sg11
L0L
sg12
L2477L
sg13
L0L
sg14
L136L
sg15
L2401L
sg16
F0.04411764705882353
sg17
L0L
sg18
L600000L
sg19
I1
sg20
L494136L
sg21
L6L
sg22
L213063L
sg23
L248146L
sg24
L1576511L
sg25
L281073L
ssS'JAEDICKE ROBERT'
p240
(dp241
g3
L0L
sg4
L0L
sg5
L0L
sg6
I00
sg7
L0L
sg8
F0.0
sg9
L0L
sg10
L-25000L
sg11
L-44093L
sg12
L0L
sg13
L0L
sg14
L0L
sg15
L0L
sg16
F0.0
sg17
L0L
sg18
L0L
sg19
I0
sg20
L431750L
sg21
L0L
sg22
L44093L
sg23
L0L
sg24
L83750L
sg25
L431750L
ssS'WINOKUR JR. HERBERT S'
p242
(dp243
g3
L0L
sg4
L0L
sg5
L1413L
sg6
I00
sg7
L0L
sg8
F0.0
sg9
L0L
sg10
L-25000L
sg11
L0L
sg12
L0L
sg13
L0L
sg14
L0L
sg15
L0L
sg16
F0.0
sg17
L0L
sg18
L0L
sg19
I0
sg20
L0L
sg21
L0L
sg22
L0L
sg23
L0L
sg24
L84992L
sg25
L0L
ssS'BROWN MICHAEL'
p244
(dp245
g3
L1486L
sg4
L0L
sg5
L49288L
sg6
I00
sg7
L0L
sg8
F0.008748317631224764
sg9
L13L
sg10
L0L
sg11
L0L
sg12
L761L
sg13
L0L
sg14
L41L
sg15
L0L
sg16
F0.024390243902439025
sg17
L0L
sg18
L0L
sg19
I1
sg20
L0L
sg21
L1L
sg22
L0L
sg23
L0L
sg24
L49288L
sg25
L0L
ssS'BADUM JAMES P'
p246
(dp247
g3
L0L
sg4
L178980L
sg5
L3486L
sg6
I00
sg7
L0L
sg8
F0.0
sg9
L0L
sg10
L0L
sg11
L0L
sg12
L0L
sg13
L0L
sg14
L0L
sg15
L0L
sg16
F0.0
sg17
L0L
sg18
L0L
sg19
I0
sg20
L257817L
sg21
L0L
sg22
L0L
sg23
L0L
sg24
L182466L
sg25
L257817L
ssS'HUGHES JAMES A'
p248
(dp249
g3
L719L
sg4
L0L
sg5
L0L
sg6
I00
sg7
L0L
sg8
F0.048678720445062586
sg9
L35L
sg10
L0L
sg11
L0L
sg12
L589L
sg13
L0L
sg14
L34L
sg15
L0L
sg16
F0.14705882352941177
sg17
L0L
sg18
L0L
sg19
I1
sg20
L1118394L
sg21
L5L
sg22
L363428L
sg23
L0L
sg24
L0L
sg25
L754966L
ssS'REYNOLDS LAWRENCE'
p250
(dp251
g3
L0L
sg4
L51365L
sg5
L8409L
sg6
I00
sg7
L156250L
sg8
F0.0
sg9
L0L
sg10
L-200000L
sg11
L-140264L
sg12
L0L
sg13
L0L
sg14
L0L
sg15
L202052L
sg16
F0.0
sg17
L0L
sg18
L100000L
sg19
I0
sg20
L4221891L
sg21
L0L
sg22
L201483L
sg23
L76399L
sg24
L394475L
sg25
L4160672L
ssS'DIMICHELE RICHARD G'
p252
(dp253
g3
L0L
sg4
L0L
sg5
L35812L
sg6
I00
sg7
L694862L
sg8
F0.0
sg9
L0L
sg10
L0L
sg11
L0L
sg12
L0L
sg13
L0L
sg14
L0L
sg15
L374689L
sg16
F0.0
sg17
L0L
sg18
L1000000L
sg19
I0
sg20
L8317782L
sg21
L0L
sg22
L126027L
sg23
L262788L
sg24
L2368151L
sg25
L8191755L
ssS'BHATNAGAR SANJAY'
p254
(dp255
g3
L523L
sg4
L0L
sg5
L0L
sg6
I00
sg7
L0L
sg8
F0.0
sg9
L0L
sg10
L0L
sg11
L0L
sg12
L463L
sg13
L0L
sg14
L29L
sg15
L137864L
sg16
F0.034482758620689655
sg17
L0L
sg18
L0L
sg19
I1
sg20
L0L
sg21
L1L
sg22
L-2604490L
sg23
L0L
sg24
L15456290L
sg25
L2604490L
ssS'CARTER REBECCA C'
p256
(dp257
g3
L312L
sg4
L0L
sg5
L0L
sg6
I00
sg7
L75000L
sg8
F0.09294871794871795
sg9
L29L
sg10
L-159792L
sg11
L-307301L
sg12
L196L
sg13
L0L
sg14
L15L
sg15
L540L
sg16
F0.4666666666666667
sg17
L0L
sg18
L300000L
sg19
I1
sg20
L0L
sg21
L7L
sg22
L307301L
sg23
L261809L
sg24
L477557L
sg25
L0L
ssS'BUCHANAN HAROLD G'
p258
(dp259
g3
L1088L
sg4
L0L
sg5
L600L
sg6
I00
sg7
L304805L
sg8
F0.0
sg9
L0L
sg10
L0L
sg11
L0L
sg12
L23L
sg13
L0L
sg14
L125L
sg15
L1215L
sg16
F0.0
sg17
L0L
sg18
L500000L
sg19
I1
sg20
L1014505L
sg21
L0L
sg22
L189041L
sg23
L248017L
sg24
L1054637L
sg25
L825464L
ssS'YEAP SOON'
p260
(dp261
g3
L0L
sg4
L0L
sg5
L55097L
sg6
I00
sg7
L0L
sg8
F0.0
sg9
L0L
sg10
L0L
sg11
L0L
sg12
L0L
sg13
L0L
sg14
L0L
sg15
L0L
sg16
F0.0
sg17
L0L
sg18
L0L
sg19
I0
sg20
L192758L
sg21
L0L
sg22
L0L
sg23
L0L
sg24
L55097L
sg25
L192758L
ssS'MURRAY JULIA H'
p262
(dp263
g3
L2192L
sg4
L0L
sg5
L57580L
sg6
I00
sg7
L125000L
sg8
F0.005018248175182482
sg9
L11L
sg10
L0L
sg11
L0L
sg12
L395L
sg13
L0L
sg14
L45L
sg15
L330L
sg16
F0.044444444444444446
sg17
L0L
sg18
L400000L
sg19
I1
sg20
L597461L
sg21
L2L
sg22
L196983L
sg23
L229284L
sg24
L812194L
sg25
L400478L
ssS'GARLAND C KEVIN'
p264
(dp265
g3
L209L
sg4
L0L
sg5
L48405L
sg6
I00
sg7
L375304L
sg8
F0.04784688995215311
sg9
L10L
sg10
L0L
sg11
L0L
sg12
L178L
sg13
L0L
sg14
L44L
sg15
L60814L
sg16
F0.6136363636363636
sg17
L0L
sg18
L850000L
sg19
I1
sg20
L896153L
sg21
L27L
sg22
L259907L
sg23
L231946L
sg24
L1566469L
sg25
L636246L
ssS'DODSON KEITH'
p266
(dp267
g3
L176L
sg4
L0L
sg5
L28164L
sg6
I00
sg7
L0L
sg8
F0.056818181818181816
sg9
L10L
sg10
L0L
sg11
L0L
sg12
L114L
sg13
L0L
sg14
L14L
sg15
L774L
sg16
F0.21428571428571427
sg17
L0L
sg18
L70000L
sg19
I1
sg20
L0L
sg21
L3L
sg22
L0L
sg23
L221003L
sg24
L319941L
sg25
L0L
ssS'YEAGER F SCOTT'
p268
(dp269
g3
L0L
sg4
L0L
sg5
L53947L
sg6
I01
sg7
L0L
sg8
F0.0
sg9
L0L
sg10
L0L
sg11
L0L
sg12
L0L
sg13
L0L
sg14
L0L
sg15
L147950L
sg16
F0.0
sg17
L0L
sg18
L0L
sg19
I0
sg20
L11884758L
sg21
L0L
sg22
L3576206L
sg23
L158403L
sg24
L360300L
sg25
L8308552L
ssS'HIRKO JOSEPH'
p270
(dp271
g3
L0L
sg4
L10259L
sg5
L77978L
sg6
I01
sg7
L0L
sg8
F0.0
sg9
L0L
sg10
L0L
sg11
L0L
sg12
L0L
sg13
L0L
sg14
L0L
sg15
L2856L
sg16
F0.0
sg17
L0L
sg18
L0L
sg19
I0
sg20
L0L
sg21
L0L
sg22
L0L
sg23
L0L
sg24
L91093L
sg25
L0L
ssS'DIETRICH JANET R'
p272
(dp273
g3
L2572L
sg4
L0L
sg5
L3475L
sg6
I00
sg7
L556416L
sg8
F0.0
sg9
L0L
sg10
L0L
sg11
L0L
sg12
L1902L
sg13
L0L
sg14
L63L
sg15
L473L
sg16
F0.2222222222222222
sg17
L0L
sg18
L600000L
sg19
I1
sg20
L1865087L
sg21
L14L
sg22
L315068L
sg23
L250100L
sg24
L1410464L
sg25
L1550019L
ssS'DERRICK JR. JAMES V'
p274
(dp275
g3
L2181L
sg4
L0L
sg5
L51124L
sg6
I00
sg7
L484000L
sg8
F0.029344337459880788
sg9
L64L
sg10
L-1284000L
sg11
L-1787380L
sg12
L1401L
sg13
L0L
sg14
L909L
sg15
L7482L
sg16
F0.022002200220022004
sg17
L0L
sg18
L800000L
sg19
I1
sg20
L8831913L
sg21
L20L
sg22
L1787380L
sg23
L492375L
sg24
L550981L
sg25
L8831913L
ssS'FREVERT MARK A'
p276
(dp277
g3
L3275L
sg4
L0L
sg5
L86987L
sg6
I00
sg7
L1617011L
sg8
F0.0
sg9
L0L
sg10
L-3367011L
sg11
L0L
sg12
L0L
sg13
L2000000L
sg14
L21L
sg15
L0L
sg16
F0.2857142857142857
sg17
L0L
sg18
L2000000L
sg19
I1
sg20
L14622185L
sg21
L6L
sg22
L4188667L
sg23
L0L
sg24
L17252530L
sg25
L10433518L
ssS'PAI LOU L'
p278
(dp279
g3
L0L
sg4
L0L
sg5
L32047L
sg6
I00
sg7
L0L
sg8
F0.0
sg9
L0L
sg10
L0L
sg11
L0L
sg12
L0L
sg13
L0L
sg14
L0L
sg15
L1829457L
sg16
F0.0
sg17
L0L
sg18
L1000000L
sg19
I0
sg20
L0L
sg21
L0L
sg22
L0L
sg23
L261879L
sg24
L3123383L
sg25
L0L
ssS'BAY FRANKLIN R'
p280
(dp281
g3
L0L
sg4
L260455L
sg5
L0L
sg6
I00
sg7
L0L
sg8
F0.0
sg9
L0L
sg10
L-201641L
sg11
L-82782L
sg12
L0L
sg13
L0L
sg14
L0L
sg15
L69L
sg16
F0.0
sg17
L0L
sg18
L400000L
sg19
I0
sg20
L63014L
sg21
L0L
sg22
L145796L
sg23
L239671L
sg24
L827696L
sg25
L0L
ssS'HAYSLETT RODERICK J'
p282
(dp283
g3
L2649L
sg4
L0L
sg5
L0L
sg6
I00
sg7
L0L
sg8
F0.01321253303133258
sg9
L35L
sg10
L0L
sg11
L0L
sg12
L571L
sg13
L0L
sg14
L1061L
sg15
L0L
sg16
F0.03581526861451461
sg17
L0L
sg18
L0L
sg19
I1
sg20
L346663L
sg21
L38L
sg22
L346663L
sg23
L0L
sg24
L0L
sg25
L0L
ssS'FUGH JOHN L'
p284
(dp285
g3
L0L
sg4
L50591L
sg5
L0L
sg6
I00
sg7
L0L
sg8
F0.0
sg9
L0L
sg10
L0L
sg11
L0L
sg12
L0L
sg13
L0L
sg14
L0L
sg15
L0L
sg16
F0.0
sg17
L0L
sg18
L0L
sg19
I0
sg20
L176378L
sg21
L0L
sg22
L0L
sg23
L0L
sg24
L50591L
sg25
L176378L
ssS'FALLON JAMES B'
p286
(dp287
g3
L1755L
sg4
L0L
sg5
L95924L
sg6
I00
sg7
L374347L
sg8
F0.023931623931623933
sg9
L42L
sg10
L0L
sg11
L0L
sg12
L1604L
sg13
L0L
sg14
L75L
sg15
L401481L
sg16
F0.49333333333333335
sg17
L0L
sg18
L2500000L
sg19
I1
sg20
L2332399L
sg21
L37L
sg22
L1392142L
sg23
L304588L
sg24
L3676340L
sg25
L940257L
ssS'KOENIG MARK E'
p288
(dp289
g3
L2374L
sg4
L0L
sg5
L0L
sg6
I01
sg7
L300000L
sg8
F0.02232518955349621
sg9
L53L
sg10
L0L
sg11
L0L
sg12
L2271L
sg13
L0L
sg14
L61L
sg15
L150458L
sg16
F0.2459016393442623
sg17
L0L
sg18
L700000L
sg19
I1
sg20
L1920055L
sg21
L15L
sg22
L1248318L
sg23
L309946L
sg24
L1587421L
sg25
L671737L
ssS'SAVAGE FRANK'
p290
(dp291
g3
L0L
sg4
L0L
sg5
L0L
sg6
I00
sg7
L0L
sg8
F0.0
sg9
L0L
sg10
L-121284L
sg11
L0L
sg12
L0L
sg13
L0L
sg14
L0L
sg15
L0L
sg16
F0.0
sg17
L0L
sg18
L0L
sg19
I0
sg20
L0L
sg21
L0L
sg22
L0L
sg23
L0L
sg24
L3750L
sg25
L0L
ssS'IZZO LAWRENCE L'
p292
(dp293
g3
L496L
sg4
L0L
sg5
L28093L
sg6
I00
sg7
L312500L
sg8
F0.056451612903225805
sg9
L28L
sg10
L0L
sg11
L0L
sg12
L437L
sg13
L0L
sg14
L19L
sg15
L1553729L
sg16
F0.2631578947368421
sg17
L0L
sg18
L0L
sg19
I1
sg20
L5819980L
sg21
L5L
sg22
L3654808L
sg23
L85274L
sg24
L1979596L
sg25
L2165172L
ssS'TILNEY ELIZABETH A'
p294
(dp295
g3
L460L
sg4
L0L
sg5
L0L
sg6
I00
sg7
L275000L
sg8
F0.021739130434782608
sg9
L10L
sg10
L-575000L
sg11
L0L
sg12
L379L
sg13
L0L
sg14
L19L
sg15
L152055L
sg16
F0.5789473684210527
sg17
L0L
sg18
L300000L
sg19
I1
sg20
L1168042L
sg21
L11L
sg22
L576792L
sg23
L247338L
sg24
L399393L
sg25
L591250L
ssS'MARTIN AMANDA K'
p296
(dp297
g3
L1522L
sg4
L85430L
sg5
L8211L
sg6
I00
sg7
L0L
sg8
F0.005256241787122208
sg9
L8L
sg10
L0L
sg11
L0L
sg12
L477L
sg13
L0L
sg14
L230L
sg15
L0L
sg16
F0.0
sg17
L0L
sg18
L0L
sg19
I1
sg20
L2070306L
sg21
L0L
sg22
L0L
sg23
L349487L
sg24
L8407016L
sg25
L2070306L
ssS'BUY RICHARD B'
p298
(dp299
g3
L3523L
sg4
L649584L
sg5
L0L
sg6
I00
sg7
L769862L
sg8
F0.04428044280442804
sg9
L156L
sg10
L-694862L
sg11
L0L
sg12
L2333L
sg13
L0L
sg14
L1053L
sg15
L400572L
sg16
F0.06742640075973409
sg17
L0L
sg18
L900000L
sg19
I1
sg20
L3444470L
sg21
L71L
sg22
L901657L
sg23
L330546L
sg24
L2355702L
sg25
L2542813L
ssS'GRAMM WENDY L'
p300
(dp301
g3
L0L
sg4
L0L
sg5
L0L
sg6
I00
sg7
L0L
sg8
F0.0
sg9
L0L
sg10
L0L
sg11
L0L
sg12
L0L
sg13
L0L
sg14
L0L
sg15
L0L
sg16
F0.0
sg17
L0L
sg18
L0L
sg19
I0
sg20
L0L
sg21
L0L
sg22
L0L
sg23
L0L
sg24
L119292L
sg25
L0L
ssS'CAUSEY RICHARD A'
p302
(dp303
g3
L1892L
sg4
L0L
sg5
L30674L
sg6
I01
sg7
L350000L
sg8
F0.0306553911205074
sg9
L58L
sg10
L-235000L
sg11
L0L
sg12
L1585L
sg13
L0L
sg14
L49L
sg15
L307895L
sg16
F0.24489795918367346
sg17
L0L
sg18
L1000000L
sg19
I1
sg20
L2502063L
sg21
L12L
sg22
L2502063L
sg23
L415189L
sg24
L1868758L
sg25
L0L
ssS'TAYLOR MITCHELL S'
p304
(dp305
g3
L533L
sg4
L227449L
sg5
L0L
sg6
I00
sg7
L0L
sg8
F0.0
sg9
L0L
sg10
L0L
sg11
L0L
sg12
L300L
sg13
L0L
sg14
L29L
sg15
L0L
sg16
F0.0
sg17
L0L
sg18
L600000L
sg19
I1
sg20
L3745048L
sg21
L0L
sg22
L563798L
sg23
L265214L
sg24
L1092663L
sg25
L3181250L
ssS'DONAHUE JR JEFFREY M'
p306
(dp307
g3
L865L
sg4
L0L
sg5
L96268L
sg6
I00
sg7
L0L
sg8
F0.0
sg9
L0L
sg10
L-300000L
sg11
L0L
sg12
L772L
sg13
L0L
sg14
L22L
sg15
L891L
sg16
F0.5
sg17
L0L
sg18
L800000L
sg19
I1
sg20
L1080988L
sg21
L11L
sg22
L315068L
sg23
L278601L
sg24
L875760L
sg25
L765920L
ssS'GLISAN JR BEN F'
p308
(dp309
g3
L873L
sg4
L0L
sg5
L125978L
sg6
I01
sg7
L71023L
sg8
F0.05956471935853379
sg9
L52L
sg10
L0L
sg11
L0L
sg12
L874L
sg13
L0L
sg14
L16L
sg15
L200308L
sg16
F0.375
sg17
L0L
sg18
L600000L
sg19
I1
sg20
L778546L
sg21
L6L
sg22
L393818L
sg23
L274975L
sg24
L1272284L
sg25
L384728L
ss.